target datalayout = "e-m:e-p270:32:32-p271:32:32-p272:64:64-i64:64-i128:128-f80:128-n8:16:32:64-S128"
target triple = "x86_64-unknown-linux-gnu"

%"class.icu_75::numparse::impl::ArraySeriesMatcher" = type <{ %"class.icu_75::numparse::impl::SeriesMatcher", %"class.icu_75::MaybeStackArray", i32, [4 x i8] }>
%"class.icu_75::numparse::impl::SeriesMatcher" = type { %"class.icu_75::numparse::impl::CompositionMatcher" }
%"class.icu_75::numparse::impl::CompositionMatcher" = type { %"class.icu_75::numparse::impl::NumberParseMatcher" }
%"class.icu_75::numparse::impl::NumberParseMatcher" = type { ptr }
%"class.icu_75::MaybeStackArray" = type { ptr, i32, i8, [3 x ptr] }

@_ZTVN6icu_758numparse4impl18NumberParseMatcherE = external unnamed_addr constant { [9 x ptr] }, align 8

; Function Attrs: mustprogress nounwind uwtable
define linkonce_odr void @_ZN6icu_758numparse4impl18NumberParseMatcherC2Ev(ptr noundef nonnull align 8 dereferenceable(8) %this) unnamed_addr #2 comdat align 2 {
entry:
  %this.addr = alloca ptr, align 8
  store ptr %this, ptr %this.addr, align 8
  %this1 = load ptr, ptr %this.addr, align 8
  store ptr getelementptr inbounds ({ [9 x ptr] }, ptr @_ZTVN6icu_758numparse4impl18NumberParseMatcherE, i32 0, i32 0, i32 2), ptr %this1, align 8
  ret void
}

; Function Attrs: noreturn nounwind uwtable
define linkonce_odr hidden void @__clang_call_terminate(ptr noundef %0) #6 comdat {
  %2 = call ptr @__cxa_begin_catch(ptr %0) #8
  call void @_ZSt9terminatev() #9
  unreachable
}

; Function Attrs: mustprogress nounwind uwtable
define linkonce_odr void @_ZN6icu_7515MaybeStackArrayIPKNS_8numparse4impl18NumberParseMatcherELi3EE17resetToStackArrayEv(ptr noundef nonnull align 8 dereferenceable(40) %this) #2 comdat align 2 {
entry:
  %this.addr = alloca ptr, align 8
  store ptr %this, ptr %this.addr, align 8
  %this1 = load ptr, ptr %this.addr, align 8
  %stackArray = getelementptr inbounds %"class.icu_75::MaybeStackArray", ptr %this1, i32 0, i32 3
  %arraydecay = getelementptr inbounds [3 x ptr], ptr %stackArray, i64 0, i64 0
  %ptr = getelementptr inbounds %"class.icu_75::MaybeStackArray", ptr %this1, i32 0, i32 0
  store ptr %arraydecay, ptr %ptr, align 8
  %capacity = getelementptr inbounds %"class.icu_75::MaybeStackArray", ptr %this1, i32 0, i32 1
  store i32 3, ptr %capacity, align 8
  %needToRelease = getelementptr inbounds %"class.icu_75::MaybeStackArray", ptr %this1, i32 0, i32 2
  store i8 0, ptr %needToRelease, align 4
  ret void
}

; Function Attrs: mustprogress nounwind uwtable
define linkonce_odr void @_ZN6icu_758numparse4impl18CompositionMatcherC2Ev(ptr noundef nonnull align 8 dereferenceable(8) %this) unnamed_addr #2 comdat align 2 {
entry:
  %this.addr = alloca ptr, align 8
  store ptr %this, ptr %this.addr, align 8
  %this1 = load ptr, ptr %this.addr, align 8
  call void @_ZN6icu_758numparse4impl18NumberParseMatcherC2Ev(ptr noundef nonnull align 8 dereferenceable(8) %this1) #8
  store ptr getelementptr inbounds ({ [11 x ptr] }, ptr @_ZTVN6icu_758numparse4impl18CompositionMatcherE, i32 0, i32 0, i32 2), ptr %this1, align 8
  ret void
}

; Function Attrs: mustprogress nounwind uwtable
define linkonce_odr void @_ZN6icu_7515MaybeStackArrayIPKNS_8numparse4impl18NumberParseMatcherELi3EEC2EOS6_(ptr noundef nonnull align 8 dereferenceable(40) %this, ptr noundef nonnull align 8 dereferenceable(40) %src) unnamed_addr #2 comdat align 2 personality ptr @__gxx_personality_v0 {
entry:
  %this.addr = alloca ptr, align 8
  %src.addr = alloca ptr, align 8
  store ptr %this, ptr %this.addr, align 8
  store ptr %src, ptr %src.addr, align 8
  %this1 = load ptr, ptr %this.addr, align 8
  %ptr = getelementptr inbounds %"class.icu_75::MaybeStackArray", ptr %this1, i32 0, i32 0
  %0 = load ptr, ptr %src.addr, align 8
  %ptr2 = getelementptr inbounds %"class.icu_75::MaybeStackArray", ptr %0, i32 0, i32 0
  %1 = load ptr, ptr %ptr2, align 8
  store ptr %1, ptr %ptr, align 8
  %capacity = getelementptr inbounds %"class.icu_75::MaybeStackArray", ptr %this1, i32 0, i32 1
  %2 = load ptr, ptr %src.addr, align 8
  %capacity3 = getelementptr inbounds %"class.icu_75::MaybeStackArray", ptr %2, i32 0, i32 1
  %3 = load i32, ptr %capacity3, align 8
  store i32 %3, ptr %capacity, align 8
  %needToRelease = getelementptr inbounds %"class.icu_75::MaybeStackArray", ptr %this1, i32 0, i32 2
  %4 = load ptr, ptr %src.addr, align 8
  %needToRelease4 = getelementptr inbounds %"class.icu_75::MaybeStackArray", ptr %4, i32 0, i32 2
  %5 = load i8, ptr %needToRelease4, align 4
  store i8 %5, ptr %needToRelease, align 4
  %6 = load ptr, ptr %src.addr, align 8
  %ptr5 = getelementptr inbounds %"class.icu_75::MaybeStackArray", ptr %6, i32 0, i32 0
  %7 = load ptr, ptr %ptr5, align 8
  %8 = load ptr, ptr %src.addr, align 8
  %stackArray = getelementptr inbounds %"class.icu_75::MaybeStackArray", ptr %8, i32 0, i32 3
  %arraydecay = getelementptr inbounds [3 x ptr], ptr %stackArray, i64 0, i64 0
  %cmp = icmp eq ptr %7, %arraydecay
  br i1 %cmp, label %if.then, label %if.else

if.then:                                          ; preds = %entry
  %stackArray6 = getelementptr inbounds %"class.icu_75::MaybeStackArray", ptr %this1, i32 0, i32 3
  %arraydecay7 = getelementptr inbounds [3 x ptr], ptr %stackArray6, i64 0, i64 0
  %ptr8 = getelementptr inbounds %"class.icu_75::MaybeStackArray", ptr %this1, i32 0, i32 0
  store ptr %arraydecay7, ptr %ptr8, align 8
  br label %do.body

do.body:                                          ; preds = %if.then
  %stackArray9 = getelementptr inbounds %"class.icu_75::MaybeStackArray", ptr %this1, i32 0, i32 3
  %arraydecay10 = getelementptr inbounds [3 x ptr], ptr %stackArray9, i64 0, i64 0
  %9 = load ptr, ptr %src.addr, align 8
  %stackArray11 = getelementptr inbounds %"class.icu_75::MaybeStackArray", ptr %9, i32 0, i32 3
  %arraydecay12 = getelementptr inbounds [3 x ptr], ptr %stackArray11, i64 0, i64 0
  %10 = load ptr, ptr %src.addr, align 8
  %capacity13 = getelementptr inbounds %"class.icu_75::MaybeStackArray", ptr %10, i32 0, i32 1
  %11 = load i32, ptr %capacity13, align 8
  %conv = sext i32 %11 to i64
  %mul = mul i64 8, %conv
  call void @llvm.memcpy.p0.p0.i64(ptr align 8 %arraydecay10, ptr align 8 %arraydecay12, i64 %mul, i1 false)
  br label %do.cond

do.cond:                                          ; preds = %do.body
  br label %do.end

do.end:                                           ; preds = %do.cond
  br label %if.end

if.else:                                          ; preds = %entry
  %12 = load ptr, ptr %src.addr, align 8
  invoke void @_ZN6icu_7515MaybeStackArrayIPKNS_8numparse4impl18NumberParseMatcherELi3EE17resetToStackArrayEv(ptr noundef nonnull align 8 dereferenceable(40) %12)
          to label %invoke.cont unwind label %terminate.lpad

invoke.cont:                                      ; preds = %if.else
  br label %if.end

if.end:                                           ; preds = %invoke.cont, %do.end
  ret void

terminate.lpad:                                   ; preds = %if.else
  %13 = landingpad { ptr, i32 }
          catch ptr null
  %14 = extractvalue { ptr, i32 } %13, 0
  call void @__clang_call_terminate(ptr %14) #9
  unreachable
}

; Function Attrs: mustprogress nounwind uwtable
define linkonce_odr void @_ZN6icu_758numparse4impl13SeriesMatcherC2Ev(ptr noundef nonnull align 8 dereferenceable(8) %this) unnamed_addr #2 comdat align 2 {
entry:
  %this.addr = alloca ptr, align 8
  store ptr %this, ptr %this.addr, align 8
  %this1 = load ptr, ptr %this.addr, align 8
  call void @_ZN6icu_758numparse4impl18CompositionMatcherC2Ev(ptr noundef nonnull align 8 dereferenceable(8) %this1) #8
  store ptr getelementptr inbounds ({ [12 x ptr] }, ptr @_ZTVN6icu_758numparse4impl13SeriesMatcherE, i32 0, i32 0, i32 2), ptr %this1, align 8
  ret void
}

; Function Attrs: mustprogress nounwind uwtable
define void @_ZN6icu_758numparse4impl18ArraySeriesMatcherC2ERNS_15MaybeStackArrayIPKNS1_18NumberParseMatcherELi3EEEi(ptr noundef nonnull align 8 dereferenceable(52) %this, ptr noundef nonnull align 8 dereferenceable(40) %matchers, i32 noundef %matchersLen) unnamed_addr #2 align 2 {
entry:
  %this.addr = alloca ptr, align 8
  %matchers.addr = alloca ptr, align 8
  %matchersLen.addr = alloca i32, align 4
  store ptr %this, ptr %this.addr, align 8
  store ptr %matchers, ptr %matchers.addr, align 8
  store i32 %matchersLen, ptr %matchersLen.addr, align 4
  %this1 = load ptr, ptr %this.addr, align 8
  call void @_ZN6icu_758numparse4impl13SeriesMatcherC2Ev(ptr noundef nonnull align 8 dereferenceable(8) %this1) #8
  store ptr getelementptr inbounds ({ [12 x ptr] }, ptr @_ZTVN6icu_758numparse4impl18ArraySeriesMatcherE, i32 0, i32 0, i32 2), ptr %this1, align 8
  %fMatchers = getelementptr inbounds %"class.icu_75::numparse::impl::ArraySeriesMatcher", ptr %this1, i32 0, i32 1
  %0 = load ptr, ptr %matchers.addr, align 8
  call void @_ZN6icu_7515MaybeStackArrayIPKNS_8numparse4impl18NumberParseMatcherELi3EEC2EOS6_(ptr noundef nonnull align 8 dereferenceable(40) %fMatchers, ptr noundef nonnull align 8 dereferenceable(40) %0) #8
  %fMatchersLen = getelementptr inbounds %"class.icu_75::numparse::impl::ArraySeriesMatcher", ptr %this1, i32 0, i32 2
  %1 = load i32, ptr %matchersLen.addr, align 4
  store i32 %1, ptr %fMatchersLen, align 8
  ret void
}