; Function Attrs: mustprogress nofree norecurse nosync nounwind willreturn memory(readwrite, inaccessiblemem: none) uwtable
define void @_ZN6icu_758numparse4impl18ArraySeriesMatcherC2ERNS_15MaybeStackArrayIPKNS1_18NumberParseMatcherELi3EEEi(ptr noundef nonnull align 8 dereferenceable(52) %this, ptr noundef nonnull align 8 dereferenceable(40) %matchers, i32 noundef %matchersLen) unnamed_addr #4 align 2 personality ptr @__gxx_personality_v0 {
entry:
  store ptr getelementptr inbounds ({ [12 x ptr] }, ptr @_ZTVN6icu_758numparse4impl18ArraySeriesMatcherE, i64 0, i32 0, i64 2), ptr %this, align 8
  %fMatchers = getelementptr inbounds i8, ptr %this, i64 8
  %0 = load ptr, ptr %matchers, align 8
  store ptr %0, ptr %fMatchers, align 8
  %capacity.i = getelementptr inbounds i8, ptr %this, i64 16
  %capacity3.i = getelementptr inbounds i8, ptr %matchers, i64 8
  %1 = load i32, ptr %capacity3.i, align 8
  store i32 %1, ptr %capacity.i, align 8
  %needToRelease.i = getelementptr inbounds i8, ptr %this, i64 20
  %needToRelease4.i = getelementptr inbounds i8, ptr %matchers, i64 12
  %2 = load i8, ptr %needToRelease4.i, align 4
  store i8 %2, ptr %needToRelease.i, align 4
  %3 = load ptr, ptr %matchers, align 8
  %stackArray.i = getelementptr inbounds i8, ptr %matchers, i64 16
  %cmp.i = icmp eq ptr %3, %stackArray.i
  br i1 %cmp.i, label %if.then.i, label %if.else.i

if.then.i:                                        ; preds = %entry
  %stackArray6.i = getelementptr inbounds i8, ptr %this, i64 24
  store ptr %stackArray6.i, ptr %fMatchers, align 8
  %4 = load i32, ptr %capacity3.i, align 8
  %conv.i = sext i32 %4 to i64
  %mul.i = shl nsw i64 %conv.i, 3
  tail call void @llvm.memcpy.p0.p0.i64(ptr nonnull align 8 %stackArray6.i, ptr nonnull align 8 %3, i64 %mul.i, i1 false)
  br label %_ZN6icu_7515MaybeStackArrayIPKNS_8numparse4impl18NumberParseMatcherELi3EEC2EOS6_.exit

if.else.i:                                        ; preds = %entry
  store ptr %stackArray.i, ptr %matchers, align 8
  store i32 3, ptr %capacity3.i, align 8
  store i8 0, ptr %needToRelease4.i, align 4
  br label %_ZN6icu_7515MaybeStackArrayIPKNS_8numparse4impl18NumberParseMatcherELi3EEC2EOS6_.exit

_ZN6icu_7515MaybeStackArrayIPKNS_8numparse4impl18NumberParseMatcherELi3EEC2EOS6_.exit: ; preds = %if.then.i, %if.else.i
  %fMatchersLen = getelementptr inbounds i8, ptr %this, i64 48
  store i32 %matchersLen, ptr %fMatchersLen, align 8
  ret void
}